target datalayout = "e-m:e-p270:32:32-p271:32:32-p272:64:64-i64:64-i128:128-f80:128-n8:16:32:64-S128"
target triple = "x86_64-pc-linux-gnu"

%struct.cbuf = type { %union.pthread_mutex_t, i32, i32, i32, i32, i32, i32, i32, i32, i32, i32, ptr }
%union.pthread_mutex_t = type { %struct.__pthread_mutex_s }
%struct.__pthread_mutex_s = type { i32, i32, i32, i32, i32, i16, i16, %struct.__pthread_internal_list }
%struct.__pthread_internal_list = type { ptr, ptr }

@.str.2 = private unnamed_addr constant [29 x i8] c"%s: pthread_mutex_lock(): %m\00", align 1
@.str.3 = private unnamed_addr constant [31 x i8] c"%s: pthread_mutex_unlock(): %m\00", align 1
@__func__.cbuf_rewind = private unnamed_addr constant [12 x i8] c"cbuf_rewind\00", align 1

; Function Attrs: nounwind uwtable
define dso_local i32 @cbuf_rewind(ptr noundef %0, i32 noundef %1) #0 {
  %3 = alloca i32, align 4
  %4 = alloca ptr, align 8
  %5 = alloca i32, align 4
  %6 = alloca i32, align 4
  %7 = alloca i32, align 4
  %8 = alloca i32, align 4
  %9 = alloca i32, align 4
  store ptr %0, ptr %4, align 8
  store i32 %1, ptr %5, align 4
  call void @llvm.lifetime.start.p0(i64 4, ptr %6) #8
  %10 = load i32, ptr %5, align 4
  %11 = icmp slt i32 %10, -1
  br i1 %11, label %12, label %14

12:                                               ; preds = %2
  %13 = call ptr @__errno_location() #9
  store i32 22, ptr %13, align 4
  store i32 -1, ptr %3, align 4
  store i32 1, ptr %7, align 4
  br label %102

14:                                               ; preds = %2
  %15 = load i32, ptr %5, align 4
  %16 = icmp eq i32 %15, 0
  br i1 %16, label %17, label %18

17:                                               ; preds = %14
  store i32 0, ptr %3, align 4
  store i32 1, ptr %7, align 4
  br label %102

18:                                               ; preds = %14
  br label %19

19:                                               ; preds = %18
  call void @llvm.lifetime.start.p0(i64 4, ptr %8) #8
  %20 = load ptr, ptr %4, align 8
  %21 = getelementptr inbounds nuw %struct.cbuf, ptr %20, i32 0, i32 0
  %22 = call i32 @pthread_mutex_lock(ptr noundef %21) #8
  store i32 %22, ptr %8, align 4
  %23 = load i32, ptr %8, align 4
  %24 = icmp ne i32 %23, 0
  br i1 %24, label %25, label %28

25:                                               ; preds = %19
  %26 = load i32, ptr %8, align 4
  %27 = call ptr @__errno_location() #9
  store i32 %26, ptr %27, align 4
  call void (ptr, ...) @fatal_abort(ptr noundef @.str.2, ptr noundef @__func__.cbuf_rewind) #10
  unreachable

28:                                               ; preds = %19
  call void @llvm.lifetime.end.p0(i64 4, ptr %8) #8
  br label %29

29:                                               ; preds = %28
  br label %30

30:                                               ; preds = %29
  %31 = load ptr, ptr %4, align 8
  %32 = getelementptr inbounds nuw %struct.cbuf, ptr %31, i32 0, i32 9
  %33 = load i32, ptr %32, align 8
  %34 = load ptr, ptr %4, align 8
  %35 = getelementptr inbounds nuw %struct.cbuf, ptr %34, i32 0, i32 10
  %36 = load i32, ptr %35, align 4
  %37 = sub nsw i32 %33, %36
  %38 = load ptr, ptr %4, align 8
  %39 = getelementptr inbounds nuw %struct.cbuf, ptr %38, i32 0, i32 4
  %40 = load i32, ptr %39, align 4
  %41 = add nsw i32 %40, 1
  %42 = add nsw i32 %37, %41
  %43 = load ptr, ptr %4, align 8
  %44 = getelementptr inbounds nuw %struct.cbuf, ptr %43, i32 0, i32 4
  %45 = load i32, ptr %44, align 4
  %46 = add nsw i32 %45, 1
  %47 = srem i32 %42, %46
  store i32 %47, ptr %6, align 4
  %48 = load i32, ptr %5, align 4
  %49 = icmp eq i32 %48, -1
  br i1 %49, label %50, label %52

50:                                               ; preds = %30
  %51 = load i32, ptr %6, align 4
  store i32 %51, ptr %5, align 4
  br label %62

52:                                               ; preds = %30
  %53 = load i32, ptr %5, align 4
  %54 = load i32, ptr %6, align 4
  %55 = icmp slt i32 %53, %54
  br i1 %55, label %56, label %58

56:                                               ; preds = %52
  %57 = load i32, ptr %5, align 4
  br label %60

58:                                               ; preds = %52
  %59 = load i32, ptr %6, align 4
  br label %60

60:                                               ; preds = %58, %56
  %61 = phi i32 [ %57, %56 ], [ %59, %58 ]
  store i32 %61, ptr %5, align 4
  br label %62

62:                                               ; preds = %60, %50
  %63 = load i32, ptr %5, align 4
  %64 = icmp sgt i32 %63, 0
  br i1 %64, label %65, label %88

65:                                               ; preds = %62
  %66 = load i32, ptr %5, align 4
  %67 = load ptr, ptr %4, align 8
  %68 = getelementptr inbounds nuw %struct.cbuf, ptr %67, i32 0, i32 5
  %69 = load i32, ptr %68, align 8
  %70 = add nsw i32 %69, %66
  store i32 %70, ptr %68, align 8
  %71 = load ptr, ptr %4, align 8
  %72 = getelementptr inbounds nuw %struct.cbuf, ptr %71, i32 0, i32 9
  %73 = load i32, ptr %72, align 8
  %74 = load i32, ptr %5, align 4
  %75 = sub nsw i32 %73, %74
  %76 = load ptr, ptr %4, align 8
  %77 = getelementptr inbounds nuw %struct.cbuf, ptr %76, i32 0, i32 4
  %78 = load i32, ptr %77, align 4
  %79 = add nsw i32 %78, 1
  %80 = add nsw i32 %75, %79
  %81 = load ptr, ptr %4, align 8
  %82 = getelementptr inbounds nuw %struct.cbuf, ptr %81, i32 0, i32 4
  %83 = load i32, ptr %82, align 4
  %84 = add nsw i32 %83, 1
  %85 = srem i32 %80, %84
  %86 = load ptr, ptr %4, align 8
  %87 = getelementptr inbounds nuw %struct.cbuf, ptr %86, i32 0, i32 9
  store i32 %85, ptr %87, align 8
  br label %88

88:                                               ; preds = %65, %62
  br label %89

89:                                               ; preds = %88
  call void @llvm.lifetime.start.p0(i64 4, ptr %9) #8
  %90 = load ptr, ptr %4, align 8
  %91 = getelementptr inbounds nuw %struct.cbuf, ptr %90, i32 0, i32 0
  %92 = call i32 @pthread_mutex_unlock(ptr noundef %91) #8
  store i32 %92, ptr %9, align 4
  %93 = load i32, ptr %9, align 4
  %94 = icmp ne i32 %93, 0
  br i1 %94, label %95, label %98

95:                                               ; preds = %89
  %96 = load i32, ptr %9, align 4
  %97 = call ptr @__errno_location() #9
  store i32 %96, ptr %97, align 4
  call void (ptr, ...) @fatal_abort(ptr noundef @.str.3, ptr noundef @__func__.cbuf_rewind) #10
  unreachable

98:                                               ; preds = %89
  call void @llvm.lifetime.end.p0(i64 4, ptr %9) #8
  br label %99

99:                                               ; preds = %98
  br label %100

100:                                              ; preds = %99
  %101 = load i32, ptr %5, align 4
  store i32 %101, ptr %3, align 4
  store i32 1, ptr %7, align 4
  br label %102

102:                                              ; preds = %100, %17, %12
  call void @llvm.lifetime.end.p0(i64 4, ptr %6) #8
  %103 = load i32, ptr %3, align 4
  ret i32 %103
}