; Function Attrs: nounwind uwtable
define dso_local range(i32 -2147483646, 2147483647) i32 @cbuf_rewind(ptr noundef %0, i32 noundef %1) local_unnamed_addr #0 {
  %3 = icmp slt i32 %1, -1
  br i1 %3, label %4, label %6

4:                                                ; preds = %2
  %5 = tail call ptr @__errno_location() #14
  store i32 22, ptr %5, align 4
  br label %37

6:                                                ; preds = %2
  %7 = icmp eq i32 %1, 0
  br i1 %7, label %37, label %8

8:                                                ; preds = %6
  %9 = tail call i32 @pthread_mutex_lock(ptr noundef %0) #15
  %.not = icmp eq i32 %9, 0
  br i1 %.not, label %12, label %10

10:                                               ; preds = %8
  %11 = tail call ptr @__errno_location() #14
  store i32 %9, ptr %11, align 4
  tail call void (ptr, ...) @fatal_abort(ptr noundef nonnull @.str.2, ptr noundef nonnull @__func__.cbuf_rewind) #16
  unreachable

12:                                               ; preds = %8
  %13 = getelementptr inbounds nuw i8, ptr %0, i64 72
  %14 = load i32, ptr %13, align 8
  %15 = getelementptr inbounds nuw i8, ptr %0, i64 76
  %16 = load i32, ptr %15, align 4
  %17 = sub i32 %14, %16
  %18 = getelementptr inbounds nuw i8, ptr %0, i64 52
  %19 = load i32, ptr %18, align 4
  %20 = add nsw i32 %19, 1
  %21 = add nsw i32 %17, %20
  %22 = srem i32 %21, %20
  %23 = icmp eq i32 %1, -1
  %24 = tail call i32 @llvm.smin.i32(i32 %1, i32 %22)
  %.027 = select i1 %23, i32 %22, i32 %24
  %25 = icmp sgt i32 %.027, 0
  br i1 %25, label %26, label %33

26:                                               ; preds = %12
  %27 = getelementptr inbounds nuw i8, ptr %0, i64 56
  %28 = load i32, ptr %27, align 8
  %29 = add nsw i32 %28, %.027
  store i32 %29, ptr %27, align 8
  %30 = add i32 %20, %14
  %31 = sub i32 %30, %.027
  %32 = srem i32 %31, %20
  store i32 %32, ptr %13, align 8
  br label %33

33:                                               ; preds = %12, %26
  %34 = tail call i32 @pthread_mutex_unlock(ptr noundef nonnull %0) #15
  %.not31 = icmp eq i32 %34, 0
  br i1 %.not31, label %37, label %35

35:                                               ; preds = %33
  %36 = tail call ptr @__errno_location() #14
  store i32 %34, ptr %36, align 4
  tail call void (ptr, ...) @fatal_abort(ptr noundef nonnull @.str.3, ptr noundef nonnull @__func__.cbuf_rewind) #16
  unreachable

37:                                               ; preds = %33, %6, %4
  %.0 = phi i32 [ -1, %4 ], [ 0, %6 ], [ %.027, %33 ]
  ret i32 %.0
}